target datalayout = "e-m:e-p270:32:32-p271:32:32-p272:64:64-i64:64-i128:128-f80:128-n8:16:32:64-S128"
target triple = "x86_64-pc-linux-gnu"

%struct.H5O_t = type { %struct.H5C_cache_entry_t, i64, i64, i8, i64, i8, i32, i8, i8, i64, i64, i64, i64, i32, i32, i64, i64, ptr, i64, i64, i64, i64, ptr, i8, ptr }
%struct.H5C_cache_entry_t = type { ptr, i64, i64, ptr, i8, ptr, i8, i8, i8, i8, i32, i8, i8, i8, i8, i8, i32, ptr, i32, i32, i32, i32, i32, i8, i8, ptr, ptr, ptr, ptr, ptr, ptr, i8, i32, i8, i64, ptr, i64, i64, i32, i8, i32, i32, i8, ptr, ptr, ptr }
%struct.H5O_mesg_t = type { ptr, i8, i8, i32, i32, ptr, ptr, i64 }

@H5O_init_g = external global i8, align 1
@H5_libterm_g = external global i8, align 1
@.str.3 = private unnamed_addr constant [102 x i8] c"generated/home/dtcxzyw/WorkSpace/Projects/compilers/llvm-opt-benchmark/bench/hdf5/hdf5/src/H5Ocache.c\00", align 1
@H5E_OHDR_g = external global i64, align 8
@H5E_BADVALUE_g = external global i64, align 8
@H5E_CANTSET_g = external global i64, align 8
@__func__.H5O__cache_notify = private unnamed_addr constant [18 x i8] c"H5O__cache_notify\00", align 1
@.str.39 = private unnamed_addr constant [43 x i8] c"can't add object header as parent of proxy\00", align 1
@.str.40 = private unnamed_addr constant [46 x i8] c"can't remove object header as parent of proxy\00", align 1
@.str.41 = private unnamed_addr constant [35 x i8] c"unknown action from metadata cache\00", align 1

; Function Attrs: nounwind uwtable
define internal i32 @H5O__cache_notify(i32 noundef %0, ptr noundef %1) #0 {
  %3 = alloca i32, align 4
  %4 = alloca ptr, align 8
  %5 = alloca ptr, align 8
  %6 = alloca i32, align 4
  %7 = alloca i8, align 1
  %8 = alloca i32, align 4
  store i32 %0, ptr %3, align 4, !tbaa !17
  store ptr %1, ptr %4, align 8, !tbaa !3
  call void @llvm.lifetime.start.p0(i64 8, ptr %5) #7
  %9 = load ptr, ptr %4, align 8, !tbaa !3
  store ptr %9, ptr %5, align 8, !tbaa !43
  call void @llvm.lifetime.start.p0(i64 4, ptr %6) #7
  store i32 0, ptr %6, align 4, !tbaa !17
  call void @llvm.lifetime.start.p0(i64 1, ptr %7) #7
  store i8 0, ptr %7, align 1, !tbaa !9
  %10 = load i8, ptr @H5O_init_g, align 1, !tbaa !9, !range !11, !noundef !12
  %11 = trunc i8 %10 to i1
  br i1 %11, label %16, label %12

12:                                               ; preds = %2
  %13 = load i8, ptr @H5_libterm_g, align 1, !tbaa !9, !range !11, !noundef !12
  %14 = trunc i8 %13 to i1
  %15 = xor i1 %14, true
  br label %16

16:                                               ; preds = %12, %2
  %17 = phi i1 [ true, %2 ], [ %15, %12 ]
  %18 = xor i1 %17, true
  %19 = xor i1 %18, true
  %20 = zext i1 %19 to i32
  %21 = sext i32 %20 to i64
  %22 = call i64 @llvm.expect.i64(i64 %21, i64 1)
  %23 = icmp ne i64 %22, 0
  br i1 %23, label %24, label %146

24:                                               ; preds = %16
  %25 = load i32, ptr %3, align 4, !tbaa !17
  switch i32 %25, label %125 [
    i32 0, label %26
    i32 1, label %26
    i32 2, label %59
    i32 4, label %59
    i32 5, label %60
    i32 6, label %91
    i32 7, label %91
    i32 8, label %91
    i32 9, label %91
    i32 3, label %92
  ]

26:                                               ; preds = %24, %24
  %27 = load ptr, ptr %5, align 8, !tbaa !43
  %28 = getelementptr inbounds nuw %struct.H5O_t, ptr %27, i32 0, i32 3
  %29 = load i8, ptr %28, align 8, !tbaa !45, !range !11, !noundef !12
  %30 = trunc i8 %29 to i1
  br i1 %30, label %31, label %58

31:                                               ; preds = %26
  %32 = load ptr, ptr %5, align 8, !tbaa !43
  %33 = getelementptr inbounds nuw %struct.H5O_t, ptr %32, i32 0, i32 24
  %34 = load ptr, ptr %33, align 8, !tbaa !46
  %35 = load ptr, ptr %5, align 8, !tbaa !43
  %36 = call i32 @H5AC_proxy_entry_add_parent(ptr noundef %34, ptr noundef %35)
  %37 = icmp slt i32 %36, 0
  br i1 %37, label %38, label %57

38:                                               ; preds = %31
  br label %39

39:                                               ; preds = %38
  br label %40

40:                                               ; preds = %39
  br label %41

41:                                               ; preds = %40
  %42 = load i64, ptr @H5E_OHDR_g, align 8, !tbaa !13
  %43 = load i64, ptr @H5E_CANTSET_g, align 8, !tbaa !13
  %44 = call i32 (ptr, ptr, i32, i64, i64, ptr, ...) @H5E_printf_stack(ptr noundef @.str.3, ptr noundef @__func__.H5O__cache_notify, i32 noundef 513, i64 noundef %42, i64 noundef %43, ptr noundef @.str.39)
  br label %45

45:                                               ; preds = %41
  br label %46

46:                                               ; preds = %45
  store i8 1, ptr %7, align 1, !tbaa !9
  %47 = load i8, ptr %7, align 1, !tbaa !9, !range !11, !noundef !12
  %48 = trunc i8 %47 to i1
  %49 = zext i1 %48 to i8
  store i8 %49, ptr %7, align 1, !tbaa !9
  br label %50

50:                                               ; preds = %46
  br label %51

51:                                               ; preds = %50
  br label %52

52:                                               ; preds = %51
  store i32 -1, ptr %6, align 4, !tbaa !17
  br label %145

53:                                               ; No predecessors!
  br label %54

54:                                               ; preds = %53
  br label %55

55:                                               ; preds = %54
  br label %56

56:                                               ; preds = %55
  br label %57

57:                                               ; preds = %56, %31
  br label %58

58:                                               ; preds = %57, %26
  br label %144

59:                                               ; preds = %24, %24
  br label %144

60:                                               ; preds = %24
  call void @llvm.lifetime.start.p0(i64 4, ptr %8) #7
  store i32 0, ptr %8, align 4, !tbaa !17
  br label %61

61:                                               ; preds = %87, %60
  %62 = load i32, ptr %8, align 4, !tbaa !17
  %63 = zext i32 %62 to i64
  %64 = load ptr, ptr %5, align 8, !tbaa !43
  %65 = getelementptr inbounds nuw %struct.H5O_t, ptr %64, i32 0, i32 15
  %66 = load i64, ptr %65, align 8, !tbaa !49
  %67 = icmp ult i64 %63, %66
  br i1 %67, label %68, label %90

68:                                               ; preds = %61
  %69 = load ptr, ptr %5, align 8, !tbaa !43
  %70 = getelementptr inbounds nuw %struct.H5O_t, ptr %69, i32 0, i32 17
  %71 = load ptr, ptr %70, align 8, !tbaa !68
  %72 = load i32, ptr %8, align 4, !tbaa !17
  %73 = zext i32 %72 to i64
  %74 = getelementptr inbounds nuw %struct.H5O_mesg_t, ptr %71, i64 %73
  %75 = getelementptr inbounds nuw %struct.H5O_mesg_t, ptr %74, i32 0, i32 4
  %76 = load i32, ptr %75, align 8, !tbaa !69
  %77 = icmp eq i32 %76, 0
  br i1 %77, label %78, label %86

78:                                               ; preds = %68
  %79 = load ptr, ptr %5, align 8, !tbaa !43
  %80 = getelementptr inbounds nuw %struct.H5O_t, ptr %79, i32 0, i32 17
  %81 = load ptr, ptr %80, align 8, !tbaa !68
  %82 = load i32, ptr %8, align 4, !tbaa !17
  %83 = zext i32 %82 to i64
  %84 = getelementptr inbounds nuw %struct.H5O_mesg_t, ptr %81, i64 %83
  %85 = getelementptr inbounds nuw %struct.H5O_mesg_t, ptr %84, i32 0, i32 1
  store i8 0, ptr %85, align 8, !tbaa !72
  br label %86

86:                                               ; preds = %78, %68
  br label %87

87:                                               ; preds = %86
  %88 = load i32, ptr %8, align 4, !tbaa !17
  %89 = add i32 %88, 1
  store i32 %89, ptr %8, align 4, !tbaa !17
  br label %61, !llvm.loop !73

90:                                               ; preds = %61
  call void @llvm.lifetime.end.p0(i64 4, ptr %8) #7
  br label %144

91:                                               ; preds = %24, %24, %24, %24
  br label %144

92:                                               ; preds = %24
  %93 = load ptr, ptr %5, align 8, !tbaa !43
  %94 = getelementptr inbounds nuw %struct.H5O_t, ptr %93, i32 0, i32 3
  %95 = load i8, ptr %94, align 8, !tbaa !45, !range !11, !noundef !12
  %96 = trunc i8 %95 to i1
  br i1 %96, label %97, label %124

97:                                               ; preds = %92
  %98 = load ptr, ptr %5, align 8, !tbaa !43
  %99 = getelementptr inbounds nuw %struct.H5O_t, ptr %98, i32 0, i32 24
  %100 = load ptr, ptr %99, align 8, !tbaa !46
  %101 = load ptr, ptr %5, align 8, !tbaa !43
  %102 = call i32 @H5AC_proxy_entry_remove_parent(ptr noundef %100, ptr noundef %101)
  %103 = icmp slt i32 %102, 0
  br i1 %103, label %104, label %123

104:                                              ; preds = %97
  br label %105

105:                                              ; preds = %104
  br label %106

106:                                              ; preds = %105
  br label %107

107:                                              ; preds = %106
  %108 = load i64, ptr @H5E_OHDR_g, align 8, !tbaa !13
  %109 = load i64, ptr @H5E_CANTSET_g, align 8, !tbaa !13
  %110 = call i32 (ptr, ptr, i32, i64, i64, ptr, ...) @H5E_printf_stack(ptr noundef @.str.3, ptr noundef @__func__.H5O__cache_notify, i32 noundef 546, i64 noundef %108, i64 noundef %109, ptr noundef @.str.40)
  br label %111

111:                                              ; preds = %107
  br label %112

112:                                              ; preds = %111
  store i8 1, ptr %7, align 1, !tbaa !9
  %113 = load i8, ptr %7, align 1, !tbaa !9, !range !11, !noundef !12
  %114 = trunc i8 %113 to i1
  %115 = zext i1 %114 to i8
  store i8 %115, ptr %7, align 1, !tbaa !9
  br label %116

116:                                              ; preds = %112
  br label %117

117:                                              ; preds = %116
  br label %118

118:                                              ; preds = %117
  store i32 -1, ptr %6, align 4, !tbaa !17
  br label %145

119:                                              ; No predecessors!
  br label %120

120:                                              ; preds = %119
  br label %121

121:                                              ; preds = %120
  br label %122

122:                                              ; preds = %121
  br label %123

123:                                              ; preds = %122, %97
  br label %124

124:                                              ; preds = %123, %92
  br label %144

125:                                              ; preds = %24
  br label %126

126:                                              ; preds = %125
  br label %127

127:                                              ; preds = %126
  br label %128

128:                                              ; preds = %127
  %129 = load i64, ptr @H5E_OHDR_g, align 8, !tbaa !13
  %130 = load i64, ptr @H5E_BADVALUE_g, align 8, !tbaa !13
  %131 = call i32 (ptr, ptr, i32, i64, i64, ptr, ...) @H5E_printf_stack(ptr noundef @.str.3, ptr noundef @__func__.H5O__cache_notify, i32 noundef 551, i64 noundef %129, i64 noundef %130, ptr noundef @.str.41)
  br label %132

132:                                              ; preds = %128
  br label %133

133:                                              ; preds = %132
  store i8 1, ptr %7, align 1, !tbaa !9
  %134 = load i8, ptr %7, align 1, !tbaa !9, !range !11, !noundef !12
  %135 = trunc i8 %134 to i1
  %136 = zext i1 %135 to i8
  store i8 %136, ptr %7, align 1, !tbaa !9
  br label %137

137:                                              ; preds = %133
  br label %138

138:                                              ; preds = %137
  br label %139

139:                                              ; preds = %138
  store i32 -1, ptr %6, align 4, !tbaa !17
  br label %145

140:                                              ; No predecessors!
  br label %141

141:                                              ; preds = %140
  br label %142

142:                                              ; preds = %141
  br label %143

143:                                              ; preds = %142
  br label %144

144:                                              ; preds = %143, %124, %91, %90, %59, %58
  br label %145

145:                                              ; preds = %144, %139, %118, %52
  br label %146

146:                                              ; preds = %145, %16
  %147 = load i32, ptr %6, align 4, !tbaa !17
  call void @llvm.lifetime.end.p0(i64 1, ptr %7) #7
  call void @llvm.lifetime.end.p0(i64 4, ptr %6) #7
  call void @llvm.lifetime.end.p0(i64 8, ptr %5) #7
  ret i32 %147
}