; Function Attrs: nounwind uwtable
define internal range(i32 -1, 1) i32 @H5O__cache_notify(i32 noundef %0, ptr noundef %1) #1 {
  %3 = load i8, ptr @H5O_init_g, align 1, !tbaa !3, !range !7, !noundef !8
  %4 = trunc nuw i8 %3 to i1
  %5 = load i8, ptr @H5_libterm_g, align 1, !range !7
  %6 = trunc nuw i8 %5 to i1
  %7 = xor i1 %6, true
  %8 = select i1 %4, i1 true, i1 %7
  br i1 %8, label %9, label %.loopexit, !prof !9

9:                                                ; preds = %2
  switch i32 %0, label %52 [
    i32 0, label %14
    i32 1, label %14
    i32 2, label %.loopexit
    i32 4, label %.loopexit
    i32 5, label %.preheader
    i32 6, label %.loopexit
    i32 7, label %.loopexit
    i32 8, label %.loopexit
    i32 9, label %.loopexit
    i32 3, label %39
  ]

.preheader:                                       ; preds = %9
  %10 = getelementptr inbounds nuw i8, ptr %1, i64 336
  %11 = load i64, ptr %10, align 8, !tbaa !41
  %.not = icmp eq i64 %11, 0
  br i1 %.not, label %.loopexit, label %.lr.ph

.lr.ph:                                           ; preds = %.preheader
  %12 = getelementptr inbounds nuw i8, ptr %1, i64 352
  %13 = load ptr, ptr %12, align 8, !tbaa !59
  br label %27

14:                                               ; preds = %9, %9
  %15 = getelementptr inbounds nuw i8, ptr %1, i64 264
  %16 = load i8, ptr %15, align 8, !tbaa !37, !range !7, !noundef !8
  %17 = trunc nuw i8 %16 to i1
  br i1 %17, label %18, label %.loopexit

18:                                               ; preds = %14
  %19 = getelementptr inbounds nuw i8, ptr %1, i64 408
  %20 = load ptr, ptr %19, align 8, !tbaa !38
  %21 = tail call i32 @H5AC_proxy_entry_add_parent(ptr noundef %20, ptr noundef nonnull %1) #9
  %22 = icmp slt i32 %21, 0
  br i1 %22, label %23, label %.loopexit

23:                                               ; preds = %18
  %24 = load i64, ptr @H5E_OHDR_g, align 8, !tbaa !10
  %25 = load i64, ptr @H5E_CANTSET_g, align 8, !tbaa !10
  %26 = tail call i32 (ptr, ptr, i32, i64, i64, ptr, ...) @H5E_printf_stack(ptr noundef nonnull @.str.3, ptr noundef nonnull @__func__.H5O__cache_notify, i32 noundef 513, i64 noundef %24, i64 noundef %25, ptr noundef nonnull @.str.39) #9
  br label %.loopexit

27:                                               ; preds = %.lr.ph, %35
  %28 = phi i64 [ 0, %.lr.ph ], [ %37, %35 ]
  %.020 = phi i32 [ 0, %.lr.ph ], [ %36, %35 ]
  %29 = getelementptr inbounds nuw %struct.H5O_mesg_t, ptr %13, i64 %28
  %30 = getelementptr inbounds nuw i8, ptr %29, i64 16
  %31 = load i32, ptr %30, align 8, !tbaa !60
  %32 = icmp eq i32 %31, 0
  br i1 %32, label %33, label %35

33:                                               ; preds = %27
  %34 = getelementptr inbounds nuw i8, ptr %29, i64 8
  store i8 0, ptr %34, align 8, !tbaa !63
  br label %35

35:                                               ; preds = %27, %33
  %36 = add i32 %.020, 1
  %37 = zext i32 %36 to i64
  %38 = icmp ugt i64 %11, %37
  br i1 %38, label %27, label %.loopexit, !llvm.loop !64

39:                                               ; preds = %9
  %40 = getelementptr inbounds nuw i8, ptr %1, i64 264
  %41 = load i8, ptr %40, align 8, !tbaa !37, !range !7, !noundef !8
  %42 = trunc nuw i8 %41 to i1
  br i1 %42, label %43, label %.loopexit

43:                                               ; preds = %39
  %44 = getelementptr inbounds nuw i8, ptr %1, i64 408
  %45 = load ptr, ptr %44, align 8, !tbaa !38
  %46 = tail call i32 @H5AC_proxy_entry_remove_parent(ptr noundef %45, ptr noundef nonnull %1) #9
  %47 = icmp slt i32 %46, 0
  br i1 %47, label %48, label %.loopexit

48:                                               ; preds = %43
  %49 = load i64, ptr @H5E_OHDR_g, align 8, !tbaa !10
  %50 = load i64, ptr @H5E_CANTSET_g, align 8, !tbaa !10
  %51 = tail call i32 (ptr, ptr, i32, i64, i64, ptr, ...) @H5E_printf_stack(ptr noundef nonnull @.str.3, ptr noundef nonnull @__func__.H5O__cache_notify, i32 noundef 546, i64 noundef %49, i64 noundef %50, ptr noundef nonnull @.str.40) #9
  br label %.loopexit

52:                                               ; preds = %9
  %53 = load i64, ptr @H5E_OHDR_g, align 8, !tbaa !10
  %54 = load i64, ptr @H5E_BADVALUE_g, align 8, !tbaa !10
  %55 = tail call i32 (ptr, ptr, i32, i64, i64, ptr, ...) @H5E_printf_stack(ptr noundef nonnull @.str.3, ptr noundef nonnull @__func__.H5O__cache_notify, i32 noundef 551, i64 noundef %53, i64 noundef %54, ptr noundef nonnull @.str.41) #9
  br label %.loopexit

.loopexit:                                        ; preds = %35, %.preheader, %23, %48, %52, %39, %43, %9, %9, %9, %9, %9, %9, %14, %18, %2
  %.018 = phi i32 [ -1, %52 ], [ -1, %48 ], [ 0, %43 ], [ 0, %39 ], [ 0, %9 ], [ 0, %9 ], [ 0, %9 ], [ 0, %9 ], [ 0, %9 ], [ 0, %9 ], [ -1, %23 ], [ 0, %18 ], [ 0, %14 ], [ 0, %2 ], [ 0, %.preheader ], [ 0, %35 ]
  ret i32 %.018
}